target datalayout = "e-m:e-p270:32:32-p271:32:32-p272:64:64-i64:64-i128:128-f80:128-n8:16:32:64-S128"
target triple = "x86_64-pc-linux-gnu"

%"class.cv::Size_" = type { i32, i32 }
%"class.perf::MatType" = type { i32 }
%"class.testing::internal::linked_ptr_internal" = type { ptr }
%"class.testing::internal::ValueArray3.189" = type { %"class.cv::Size_", %"class.cv::Size_", %"class.cv::Size_" }
%"class.std::tuple.57" = type { %"struct.std::_Tuple_impl.58" }
%"struct.std::_Tuple_impl.58" = type { %"struct.std::_Tuple_impl.36", %"struct.std::_Head_base.59" }
%"struct.std::_Tuple_impl.36" = type { %"struct.std::_Head_base.15" }
%"struct.std::_Head_base.15" = type { %"class.perf::MatType" }
%"struct.std::_Head_base.59" = type { %"class.perf::MatType" }
%"class.testing::internal::ParamGenerator.71" = type { %"class.testing::internal::linked_ptr.72" }
%"class.testing::internal::linked_ptr.72" = type { ptr, %"class.testing::internal::linked_ptr_internal" }
%"class.testing::internal::CartesianProductHolder2.232" = type { %"class.testing::internal::ValueArray3.189", %"class.testing::internal::ValueArray4" }
%"class.testing::internal::ValueArray4" = type { %"class.std::tuple.57", %"class.std::tuple.57", %"class.std::tuple.57", %"class.std::tuple.57" }

@_ZN4perfL5szVGAE = internal global %"class.cv::Size_" zeroinitializer, align 4
@_ZN4perfL6sz720pE = internal global %"class.cv::Size_" zeroinitializer, align 4
@_ZN4perfL7sz1080pE = internal global %"class.cv::Size_" zeroinitializer, align 4

; Function Attrs: mustprogress nounwind uwtable
define linkonce_odr hidden void @_ZN4perf7MatTypeC2Ei(ptr noundef nonnull align 4 dereferenceable(4) %0, i32 noundef %1) unnamed_addr #4 comdat align 2 {
  %3 = alloca ptr, align 8
  %4 = alloca i32, align 4
  store ptr %0, ptr %3, align 8
  store i32 %1, ptr %4, align 4
  %5 = load ptr, ptr %3, align 8
  %6 = getelementptr inbounds %"class.perf::MatType", ptr %5, i32 0, i32 0
  %7 = load i32, ptr %4, align 4
  store i32 %7, ptr %6, align 4
  ret void
}

; Function Attrs: mustprogress uwtable
define linkonce_odr hidden void @_ZNSt10_Head_baseILm1EN4perf7MatTypeELb0EEC2IiEEOT_(ptr noundef nonnull align 4 dereferenceable(4) %0, ptr noundef nonnull align 4 dereferenceable(4) %1) unnamed_addr #5 comdat align 2 {
  %3 = alloca ptr, align 8
  %4 = alloca ptr, align 8
  store ptr %0, ptr %3, align 8
  store ptr %1, ptr %4, align 8
  %5 = load ptr, ptr %3, align 8
  %6 = getelementptr inbounds %"struct.std::_Head_base.15", ptr %5, i32 0, i32 0
  %7 = load ptr, ptr %4, align 8
  %8 = load i32, ptr %7, align 4
  call void @_ZN4perf7MatTypeC2Ei(ptr noundef nonnull align 4 dereferenceable(4) %6, i32 noundef %8)
  ret void
}

; Function Attrs: mustprogress nounwind uwtable
define linkonce_odr hidden void @_ZN7testing8internal11ValueArray4ISt5tupleIJN4perf7MatTypeES4_EES5_S5_S5_EC2ERKS6_(ptr noundef nonnull align 4 dereferenceable(32) %0, ptr noundef nonnull align 4 dereferenceable(32) %1) unnamed_addr #4 comdat align 2 {
  %3 = alloca ptr, align 8
  %4 = alloca ptr, align 8
  store ptr %0, ptr %3, align 8
  store ptr %1, ptr %4, align 8
  %5 = load ptr, ptr %3, align 8
  %6 = getelementptr inbounds %"class.testing::internal::ValueArray4", ptr %5, i32 0, i32 0
  %7 = load ptr, ptr %4, align 8
  %8 = getelementptr inbounds %"class.testing::internal::ValueArray4", ptr %7, i32 0, i32 0
  call void @llvm.memcpy.p0.p0.i64(ptr align 4 %6, ptr align 4 %8, i64 8, i1 false)
  %9 = getelementptr inbounds %"class.testing::internal::ValueArray4", ptr %5, i32 0, i32 1
  %10 = load ptr, ptr %4, align 8
  %11 = getelementptr inbounds %"class.testing::internal::ValueArray4", ptr %10, i32 0, i32 1
  call void @llvm.memcpy.p0.p0.i64(ptr align 4 %9, ptr align 4 %11, i64 8, i1 false)
  %12 = getelementptr inbounds %"class.testing::internal::ValueArray4", ptr %5, i32 0, i32 2
  %13 = load ptr, ptr %4, align 8
  %14 = getelementptr inbounds %"class.testing::internal::ValueArray4", ptr %13, i32 0, i32 2
  call void @llvm.memcpy.p0.p0.i64(ptr align 4 %12, ptr align 4 %14, i64 8, i1 false)
  %15 = getelementptr inbounds %"class.testing::internal::ValueArray4", ptr %5, i32 0, i32 3
  %16 = load ptr, ptr %4, align 8
  %17 = getelementptr inbounds %"class.testing::internal::ValueArray4", ptr %16, i32 0, i32 3
  call void @llvm.memcpy.p0.p0.i64(ptr align 4 %15, ptr align 4 %17, i64 8, i1 false)
  ret void
}

; Function Attrs: mustprogress nounwind uwtable
define linkonce_odr hidden void @_ZN7testing8internal11ValueArray3IN2cv5Size_IiEES4_S4_EC2ERKS5_(ptr noundef nonnull align 4 dereferenceable(24) %0, ptr noundef nonnull align 4 dereferenceable(24) %1) unnamed_addr #4 comdat align 2 {
  %3 = alloca ptr, align 8
  %4 = alloca ptr, align 8
  store ptr %0, ptr %3, align 8
  store ptr %1, ptr %4, align 8
  %5 = load ptr, ptr %3, align 8
  %6 = getelementptr inbounds %"class.testing::internal::ValueArray3.189", ptr %5, i32 0, i32 0
  %7 = load ptr, ptr %4, align 8
  %8 = getelementptr inbounds %"class.testing::internal::ValueArray3.189", ptr %7, i32 0, i32 0
  call void @llvm.memcpy.p0.p0.i64(ptr align 4 %6, ptr align 4 %8, i64 8, i1 false)
  %9 = getelementptr inbounds %"class.testing::internal::ValueArray3.189", ptr %5, i32 0, i32 1
  %10 = load ptr, ptr %4, align 8
  %11 = getelementptr inbounds %"class.testing::internal::ValueArray3.189", ptr %10, i32 0, i32 1
  call void @llvm.memcpy.p0.p0.i64(ptr align 4 %9, ptr align 4 %11, i64 8, i1 false)
  %12 = getelementptr inbounds %"class.testing::internal::ValueArray3.189", ptr %5, i32 0, i32 2
  %13 = load ptr, ptr %4, align 8
  %14 = getelementptr inbounds %"class.testing::internal::ValueArray3.189", ptr %13, i32 0, i32 2
  call void @llvm.memcpy.p0.p0.i64(ptr align 4 %12, ptr align 4 %14, i64 8, i1 false)
  ret void
}

; Function Attrs: mustprogress uwtable
define linkonce_odr hidden void @_ZNSt10_Head_baseILm0EN4perf7MatTypeELb0EEC2IiEEOT_(ptr noundef nonnull align 4 dereferenceable(4) %0, ptr noundef nonnull align 4 dereferenceable(4) %1) unnamed_addr #5 comdat align 2 {
  %3 = alloca ptr, align 8
  %4 = alloca ptr, align 8
  store ptr %0, ptr %3, align 8
  store ptr %1, ptr %4, align 8
  %5 = load ptr, ptr %3, align 8
  %6 = getelementptr inbounds %"struct.std::_Head_base.59", ptr %5, i32 0, i32 0
  %7 = load ptr, ptr %4, align 8
  %8 = load i32, ptr %7, align 4
  call void @_ZN4perf7MatTypeC2Ei(ptr noundef nonnull align 4 dereferenceable(4) %6, i32 noundef %8)
  ret void
}

; Function Attrs: mustprogress uwtable
define linkonce_odr hidden void @_ZNSt11_Tuple_implILm1EJN4perf7MatTypeEEEC2IiEEOT_(ptr noundef nonnull align 4 dereferenceable(4) %0, ptr noundef nonnull align 4 dereferenceable(4) %1) unnamed_addr #5 comdat align 2 {
  %3 = alloca ptr, align 8
  %4 = alloca ptr, align 8
  store ptr %0, ptr %3, align 8
  store ptr %1, ptr %4, align 8
  %5 = load ptr, ptr %3, align 8
  %6 = load ptr, ptr %4, align 8
  call void @_ZNSt10_Head_baseILm1EN4perf7MatTypeELb0EEC2IiEEOT_(ptr noundef nonnull align 4 dereferenceable(4) %5, ptr noundef nonnull align 4 dereferenceable(4) %6)
  ret void
}

; Function Attrs: mustprogress uwtable
define linkonce_odr hidden void @_ZN7testing8internal23CartesianProductHolder2INS0_11ValueArray3IN2cv5Size_IiEES5_S5_EENS0_11ValueArray4ISt5tupleIJN4perf7MatTypeESA_EESB_SB_SB_EEEC2ERKS6_RKSC_(ptr noundef nonnull align 4 dereferenceable(56) %0, ptr noundef nonnull align 4 dereferenceable(24) %1, ptr noundef nonnull align 4 dereferenceable(32) %2) unnamed_addr #5 comdat align 2 {
  %4 = alloca ptr, align 8
  %5 = alloca ptr, align 8
  %6 = alloca ptr, align 8
  store ptr %0, ptr %4, align 8
  store ptr %1, ptr %5, align 8
  store ptr %2, ptr %6, align 8
  %7 = load ptr, ptr %4, align 8
  %8 = getelementptr inbounds %"class.testing::internal::CartesianProductHolder2.232", ptr %7, i32 0, i32 0
  %9 = load ptr, ptr %5, align 8
  call void @_ZN7testing8internal11ValueArray3IN2cv5Size_IiEES4_S4_EC2ERKS5_(ptr noundef nonnull align 4 dereferenceable(24) %8, ptr noundef nonnull align 4 dereferenceable(24) %9)
  %10 = getelementptr inbounds %"class.testing::internal::CartesianProductHolder2.232", ptr %7, i32 0, i32 1
  %11 = load ptr, ptr %6, align 8
  call void @_ZN7testing8internal11ValueArray4ISt5tupleIJN4perf7MatTypeES4_EES5_S5_S5_EC2ERKS6_(ptr noundef nonnull align 4 dereferenceable(32) %10, ptr noundef nonnull align 4 dereferenceable(32) %11)
  ret void
}

; Function Attrs: mustprogress nounwind uwtable
define linkonce_odr hidden void @_ZN7testing8internal11ValueArray4ISt5tupleIJN4perf7MatTypeES4_EES5_S5_S5_EC2ES5_S5_S5_S5_(ptr noundef nonnull align 4 dereferenceable(32) %0, ptr noundef %1, ptr noundef %2, ptr noundef %3, ptr noundef %4) unnamed_addr #4 comdat align 2 {
  %6 = alloca ptr, align 8
  %7 = alloca ptr, align 8
  %8 = alloca ptr, align 8
  %9 = alloca ptr, align 8
  %10 = alloca ptr, align 8
  store ptr %0, ptr %6, align 8
  store ptr %1, ptr %7, align 8
  store ptr %2, ptr %8, align 8
  store ptr %3, ptr %9, align 8
  store ptr %4, ptr %10, align 8
  %11 = load ptr, ptr %6, align 8
  %12 = getelementptr inbounds %"class.testing::internal::ValueArray4", ptr %11, i32 0, i32 0
  call void @llvm.memcpy.p0.p0.i64(ptr align 4 %12, ptr align 4 %1, i64 8, i1 false)
  %13 = getelementptr inbounds %"class.testing::internal::ValueArray4", ptr %11, i32 0, i32 1
  call void @llvm.memcpy.p0.p0.i64(ptr align 4 %13, ptr align 4 %2, i64 8, i1 false)
  %14 = getelementptr inbounds %"class.testing::internal::ValueArray4", ptr %11, i32 0, i32 2
  call void @llvm.memcpy.p0.p0.i64(ptr align 4 %14, ptr align 4 %3, i64 8, i1 false)
  %15 = getelementptr inbounds %"class.testing::internal::ValueArray4", ptr %11, i32 0, i32 3
  call void @llvm.memcpy.p0.p0.i64(ptr align 4 %15, ptr align 4 %4, i64 8, i1 false)
  ret void
}

; Function Attrs: mustprogress uwtable
define linkonce_odr hidden void @_ZNSt11_Tuple_implILm0EJN4perf7MatTypeES1_EEC2IiJiEvEEOT_DpOT0_(ptr noundef nonnull align 4 dereferenceable(8) %0, ptr noundef nonnull align 4 dereferenceable(4) %1, ptr noundef nonnull align 4 dereferenceable(4) %2) unnamed_addr #5 comdat align 2 {
  %4 = alloca ptr, align 8
  %5 = alloca ptr, align 8
  %6 = alloca ptr, align 8
  store ptr %0, ptr %4, align 8
  store ptr %1, ptr %5, align 8
  store ptr %2, ptr %6, align 8
  %7 = load ptr, ptr %4, align 8
  %8 = load ptr, ptr %6, align 8
  call void @_ZNSt11_Tuple_implILm1EJN4perf7MatTypeEEEC2IiEEOT_(ptr noundef nonnull align 4 dereferenceable(4) %7, ptr noundef nonnull align 4 dereferenceable(4) %8)
  %9 = getelementptr inbounds i8, ptr %7, i64 4
  %10 = load ptr, ptr %5, align 8
  call void @_ZNSt10_Head_baseILm0EN4perf7MatTypeELb0EEC2IiEEOT_(ptr noundef nonnull align 4 dereferenceable(4) %9, ptr noundef nonnull align 4 dereferenceable(4) %10)
  ret void
}

; Function Attrs: mustprogress nounwind uwtable
define linkonce_odr hidden void @_ZN7testing8internal11ValueArray3IN2cv5Size_IiEES4_S4_EC2ES4_S4_S4_(ptr noundef nonnull align 4 dereferenceable(24) %0, i64 %1, i64 %2, i64 %3) unnamed_addr #4 comdat align 2 {
  %5 = alloca %"class.cv::Size_", align 4
  %6 = alloca %"class.cv::Size_", align 4
  %7 = alloca %"class.cv::Size_", align 4
  %8 = alloca ptr, align 8
  store i64 %1, ptr %5, align 4
  store i64 %2, ptr %6, align 4
  store i64 %3, ptr %7, align 4
  store ptr %0, ptr %8, align 8
  %9 = load ptr, ptr %8, align 8
  %10 = getelementptr inbounds %"class.testing::internal::ValueArray3.189", ptr %9, i32 0, i32 0
  call void @llvm.memcpy.p0.p0.i64(ptr align 4 %10, ptr align 4 %5, i64 8, i1 false)
  %11 = getelementptr inbounds %"class.testing::internal::ValueArray3.189", ptr %9, i32 0, i32 1
  call void @llvm.memcpy.p0.p0.i64(ptr align 4 %11, ptr align 4 %6, i64 8, i1 false)
  %12 = getelementptr inbounds %"class.testing::internal::ValueArray3.189", ptr %9, i32 0, i32 2
  call void @llvm.memcpy.p0.p0.i64(ptr align 4 %12, ptr align 4 %7, i64 8, i1 false)
  ret void
}

; Function Attrs: mustprogress uwtable
define linkonce_odr hidden void @_ZN7testing7CombineINS_8internal11ValueArray3IN2cv5Size_IiEES5_S5_EENS1_11ValueArray4ISt5tupleIJN4perf7MatTypeESA_EESB_SB_SB_EEEENS1_23CartesianProductHolder2IT_T0_EERKSE_RKSF_(ptr dead_on_unwind noalias writable sret(%"class.testing::internal::CartesianProductHolder2.232") align 4 %0, ptr noundef nonnull align 4 dereferenceable(24) %1, ptr noundef nonnull align 4 dereferenceable(32) %2) #5 comdat {
  %4 = alloca ptr, align 8
  %5 = alloca ptr, align 8
  %6 = alloca ptr, align 8
  store ptr %0, ptr %4, align 8
  store ptr %1, ptr %5, align 8
  store ptr %2, ptr %6, align 8
  %7 = load ptr, ptr %5, align 8
  %8 = load ptr, ptr %6, align 8
  call void @_ZN7testing8internal23CartesianProductHolder2INS0_11ValueArray3IN2cv5Size_IiEES5_S5_EENS0_11ValueArray4ISt5tupleIJN4perf7MatTypeESA_EESB_SB_SB_EEEC2ERKS6_RKSC_(ptr noundef nonnull align 4 dereferenceable(56) %0, ptr noundef nonnull align 4 dereferenceable(24) %7, ptr noundef nonnull align 4 dereferenceable(32) %8)
  ret void
}

; Function Attrs: mustprogress uwtable
define linkonce_odr hidden void @_ZN7testing6ValuesISt5tupleIJN4perf7MatTypeES3_EES4_S4_S4_EENS_8internal11ValueArray4IT_T0_T1_T2_EES7_S8_S9_SA_(ptr dead_on_unwind noalias writable sret(%"class.testing::internal::ValueArray4") align 4 %0, ptr noundef %1, ptr noundef %2, ptr noundef %3, ptr noundef %4) #5 comdat {
  %6 = alloca ptr, align 8
  %7 = alloca ptr, align 8
  %8 = alloca ptr, align 8
  %9 = alloca ptr, align 8
  %10 = alloca ptr, align 8
  %11 = alloca %"class.std::tuple.57", align 4
  %12 = alloca %"class.std::tuple.57", align 4
  %13 = alloca %"class.std::tuple.57", align 4
  %14 = alloca %"class.std::tuple.57", align 4
  store ptr %0, ptr %6, align 8
  store ptr %1, ptr %7, align 8
  store ptr %2, ptr %8, align 8
  store ptr %3, ptr %9, align 8
  store ptr %4, ptr %10, align 8
  call void @llvm.memcpy.p0.p0.i64(ptr align 4 %11, ptr align 4 %1, i64 8, i1 false)
  call void @llvm.memcpy.p0.p0.i64(ptr align 4 %12, ptr align 4 %2, i64 8, i1 false)
  call void @llvm.memcpy.p0.p0.i64(ptr align 4 %13, ptr align 4 %3, i64 8, i1 false)
  call void @llvm.memcpy.p0.p0.i64(ptr align 4 %14, ptr align 4 %4, i64 8, i1 false)
  call void @_ZN7testing8internal11ValueArray4ISt5tupleIJN4perf7MatTypeES4_EES5_S5_S5_EC2ES5_S5_S5_S5_(ptr noundef nonnull align 4 dereferenceable(32) %0, ptr noundef %11, ptr noundef %12, ptr noundef %13, ptr noundef %14)
  ret void
}

; Function Attrs: mustprogress uwtable
define linkonce_odr hidden void @_ZNSt5tupleIJN4perf7MatTypeES1_EEC2IiiTnNSt9enable_ifIXclsr4_TCCIXntcl14__is_alloc_argIT_EEEEE29__is_implicitly_constructibleIS5_T0_EEEbE4typeELb1EEEOS5_OS6_(ptr noundef nonnull align 4 dereferenceable(8) %0, ptr noundef nonnull align 4 dereferenceable(4) %1, ptr noundef nonnull align 4 dereferenceable(4) %2) unnamed_addr #5 comdat align 2 {
  %4 = alloca ptr, align 8
  %5 = alloca ptr, align 8
  %6 = alloca ptr, align 8
  store ptr %0, ptr %4, align 8
  store ptr %1, ptr %5, align 8
  store ptr %2, ptr %6, align 8
  %7 = load ptr, ptr %4, align 8
  %8 = load ptr, ptr %5, align 8
  %9 = load ptr, ptr %6, align 8
  call void @_ZNSt11_Tuple_implILm0EJN4perf7MatTypeES1_EEC2IiJiEvEEOT_DpOT0_(ptr noundef nonnull align 4 dereferenceable(8) %7, ptr noundef nonnull align 4 dereferenceable(4) %8, ptr noundef nonnull align 4 dereferenceable(4) %9)
  ret void
}

; Function Attrs: mustprogress uwtable
define linkonce_odr hidden void @_ZN7testing6ValuesIN2cv5Size_IiEES3_S3_EENS_8internal11ValueArray3IT_T0_T1_EES6_S7_S8_(ptr dead_on_unwind noalias writable sret(%"class.testing::internal::ValueArray3.189") align 4 %0, i64 %1, i64 %2, i64 %3) #5 comdat {
  %5 = alloca ptr, align 8
  %6 = alloca %"class.cv::Size_", align 4
  %7 = alloca %"class.cv::Size_", align 4
  %8 = alloca %"class.cv::Size_", align 4
  %9 = alloca %"class.cv::Size_", align 4
  %10 = alloca %"class.cv::Size_", align 4
  %11 = alloca %"class.cv::Size_", align 4
  store ptr %0, ptr %5, align 8
  store i64 %1, ptr %6, align 4
  store i64 %2, ptr %7, align 4
  store i64 %3, ptr %8, align 4
  call void @llvm.memcpy.p0.p0.i64(ptr align 4 %9, ptr align 4 %6, i64 8, i1 false)
  call void @llvm.memcpy.p0.p0.i64(ptr align 4 %10, ptr align 4 %7, i64 8, i1 false)
  call void @llvm.memcpy.p0.p0.i64(ptr align 4 %11, ptr align 4 %8, i64 8, i1 false)
  %12 = load i64, ptr %9, align 4
  %13 = load i64, ptr %10, align 4
  %14 = load i64, ptr %11, align 4
  call void @_ZN7testing8internal11ValueArray3IN2cv5Size_IiEES4_S4_EC2ES4_S4_S4_(ptr noundef nonnull align 4 dereferenceable(24) %0, i64 %12, i64 %13, i64 %14)
  ret void
}

; Function Attrs: mustprogress uwtable
define internal void @_ZN11opencv_testL36gtest_ArithmMixedTest_EvalGenerator_Ev(ptr dead_on_unwind noalias writable sret(%"class.testing::internal::ParamGenerator.71") align 8 %0) #5 {
  %2 = alloca ptr, align 8
  %3 = alloca %"class.testing::internal::CartesianProductHolder2.232", align 4
  %4 = alloca %"class.testing::internal::ValueArray3.189", align 4
  %5 = alloca %"class.cv::Size_", align 4
  %6 = alloca %"class.cv::Size_", align 4
  %7 = alloca %"class.cv::Size_", align 4
  %8 = alloca %"class.testing::internal::ValueArray4", align 4
  %9 = alloca %"class.std::tuple.57", align 4
  %10 = alloca i32, align 4
  %11 = alloca i32, align 4
  %12 = alloca %"class.std::tuple.57", align 4
  %13 = alloca i32, align 4
  %14 = alloca i32, align 4
  %15 = alloca %"class.std::tuple.57", align 4
  %16 = alloca i32, align 4
  %17 = alloca i32, align 4
  %18 = alloca %"class.std::tuple.57", align 4
  %19 = alloca i32, align 4
  %20 = alloca i32, align 4
  store ptr %0, ptr %2, align 8
  call void @llvm.memcpy.p0.p0.i64(ptr align 4 %5, ptr align 4 @_ZN4perfL5szVGAE, i64 8, i1 false)
  call void @llvm.memcpy.p0.p0.i64(ptr align 4 %6, ptr align 4 @_ZN4perfL6sz720pE, i64 8, i1 false)
  call void @llvm.memcpy.p0.p0.i64(ptr align 4 %7, ptr align 4 @_ZN4perfL7sz1080pE, i64 8, i1 false)
  %21 = load i64, ptr %5, align 4
  %22 = load i64, ptr %6, align 4
  %23 = load i64, ptr %7, align 4
  call void @_ZN7testing6ValuesIN2cv5Size_IiEES3_S3_EENS_8internal11ValueArray3IT_T0_T1_EES6_S7_S8_(ptr dead_on_unwind writable sret(%"class.testing::internal::ValueArray3.189") align 4 %4, i64 %21, i64 %22, i64 %23)
  store i32 0, ptr %10, align 4
  store i32 2, ptr %11, align 4
  call void @_ZNSt5tupleIJN4perf7MatTypeES1_EEC2IiiTnNSt9enable_ifIXclsr4_TCCIXntcl14__is_alloc_argIT_EEEEE29__is_implicitly_constructibleIS5_T0_EEEbE4typeELb1EEEOS5_OS6_(ptr noundef nonnull align 4 dereferenceable(8) %9, ptr noundef nonnull align 4 dereferenceable(4) %10, ptr noundef nonnull align 4 dereferenceable(4) %11)
  store i32 1, ptr %13, align 4
  store i32 3, ptr %14, align 4
  call void @_ZNSt5tupleIJN4perf7MatTypeES1_EEC2IiiTnNSt9enable_ifIXclsr4_TCCIXntcl14__is_alloc_argIT_EEEEE29__is_implicitly_constructibleIS5_T0_EEEbE4typeELb1EEEOS5_OS6_(ptr noundef nonnull align 4 dereferenceable(8) %12, ptr noundef nonnull align 4 dereferenceable(4) %13, ptr noundef nonnull align 4 dereferenceable(4) %14)
  store i32 0, ptr %16, align 4
  store i32 5, ptr %17, align 4
  call void @_ZNSt5tupleIJN4perf7MatTypeES1_EEC2IiiTnNSt9enable_ifIXclsr4_TCCIXntcl14__is_alloc_argIT_EEEEE29__is_implicitly_constructibleIS5_T0_EEEbE4typeELb1EEEOS5_OS6_(ptr noundef nonnull align 4 dereferenceable(8) %15, ptr noundef nonnull align 4 dereferenceable(4) %16, ptr noundef nonnull align 4 dereferenceable(4) %17)
  store i32 1, ptr %19, align 4
  store i32 5, ptr %20, align 4
  call void @_ZNSt5tupleIJN4perf7MatTypeES1_EEC2IiiTnNSt9enable_ifIXclsr4_TCCIXntcl14__is_alloc_argIT_EEEEE29__is_implicitly_constructibleIS5_T0_EEEbE4typeELb1EEEOS5_OS6_(ptr noundef nonnull align 4 dereferenceable(8) %18, ptr noundef nonnull align 4 dereferenceable(4) %19, ptr noundef nonnull align 4 dereferenceable(4) %20)
  call void @_ZN7testing6ValuesISt5tupleIJN4perf7MatTypeES3_EES4_S4_S4_EENS_8internal11ValueArray4IT_T0_T1_T2_EES7_S8_S9_SA_(ptr dead_on_unwind writable sret(%"class.testing::internal::ValueArray4") align 4 %8, ptr noundef %9, ptr noundef %12, ptr noundef %15, ptr noundef %18)
  call void @_ZN7testing7CombineINS_8internal11ValueArray3IN2cv5Size_IiEES5_S5_EENS1_11ValueArray4ISt5tupleIJN4perf7MatTypeESA_EESB_SB_SB_EEEENS1_23CartesianProductHolder2IT_T0_EERKSE_RKSF_(ptr dead_on_unwind writable sret(%"class.testing::internal::CartesianProductHolder2.232") align 4 %3, ptr noundef nonnull align 4 dereferenceable(24) %4, ptr noundef nonnull align 4 dereferenceable(32) %8)
  call void @_ZNK7testing8internal23CartesianProductHolder2INS0_11ValueArray3IN2cv5Size_IiEES5_S5_EENS0_11ValueArray4ISt5tupleIJN4perf7MatTypeESA_EESB_SB_SB_EEEcvNS0_14ParamGeneratorIS8_IJT_T0_EEEEIS5_SB_EEv(ptr dead_on_unwind writable sret(%"class.testing::internal::ParamGenerator.71") align 8 %0, ptr noundef nonnull align 4 dereferenceable(56) %3)
  ret void
}