; Function Attrs: mustprogress uwtable
define internal void @_ZN11opencv_testL36gtest_ArithmMixedTest_EvalGenerator_Ev(ptr dead_on_unwind noalias writable sret(%"class.testing::internal::ParamGenerator.71") align 8 %0) #3 {
  %2 = alloca %"class.testing::internal::CartesianProductHolder2.232", align 8
  %.sroa.02.0.copyload = load i64, ptr @_ZN4perfL5szVGAE, align 8
  %.sroa.01.0.copyload = load i64, ptr @_ZN4perfL6sz720pE, align 8
  %.sroa.0.0.copyload = load i64, ptr @_ZN4perfL7sz1080pE, align 8
  store i64 %.sroa.02.0.copyload, ptr %2, align 8, !alias.scope !52
  %3 = getelementptr inbounds i8, ptr %2, i64 8
  store i64 %.sroa.01.0.copyload, ptr %3, align 8, !alias.scope !52
  %4 = getelementptr inbounds i8, ptr %2, i64 16
  store i64 %.sroa.0.0.copyload, ptr %4, align 8, !alias.scope !52
  %5 = getelementptr inbounds i8, ptr %2, i64 24
  store i64 2, ptr %5, align 8, !alias.scope !52
  %6 = getelementptr inbounds i8, ptr %2, i64 32
  store i64 4294967299, ptr %6, align 8, !alias.scope !52
  %7 = getelementptr inbounds i8, ptr %2, i64 40
  store i64 5, ptr %7, align 8, !alias.scope !52
  %8 = getelementptr inbounds i8, ptr %2, i64 48
  store i64 4294967301, ptr %8, align 8, !alias.scope !52
  call void @_ZNK7testing8internal23CartesianProductHolder2INS0_11ValueArray3IN2cv5Size_IiEES5_S5_EENS0_11ValueArray4ISt5tupleIJN4perf7MatTypeESA_EESB_SB_SB_EEEcvNS0_14ParamGeneratorIS8_IJT_T0_EEEEIS5_SB_EEv(ptr dead_on_unwind writable sret(%"class.testing::internal::ParamGenerator.71") align 8 %0, ptr noundef nonnull align 4 dereferenceable(56) %2)
  ret void
}